; Function Attrs: nounwind sspstrong uwtable
define internal noundef i64 @ossl_pkcs7_set_crls(i64 noundef %0, i64 noundef returned %1) #0 {
  %3 = tail call ptr @rb_check_typeddata(i64 noundef %0, ptr noundef nonnull @ossl_pkcs7_type) #5
  %.not.i = icmp eq ptr %3, null
  br i1 %.not.i, label %4, label %6

4:                                                ; preds = %2
  %5 = load i64, ptr @rb_eRuntimeError, align 8, !tbaa !6
  tail call void (i64, ptr, ...) @ossl_raise(i64 noundef %5, ptr noundef nonnull @.str.1) #6
  unreachable

6:                                                ; preds = %2
  %7 = getelementptr inbounds nuw i8, ptr %3, i64 24
  %8 = load ptr, ptr %7, align 8, !tbaa !22
  %9 = tail call i32 @OBJ_obj2nid(ptr noundef %8) #5
  switch i32 %9, label %pkcs7_get_crls.exit.thread [
    i32 22, label %pkcs7_get_crls.exit
    i32 24, label %pkcs7_get_crls.exit
  ]

pkcs7_get_crls.exit:                              ; preds = %6, %6
  %10 = getelementptr inbounds nuw i8, ptr %3, i64 32
  %11 = load ptr, ptr %10, align 8, !tbaa !17
  %12 = getelementptr inbounds nuw i8, ptr %11, i64 24
  %13 = load ptr, ptr %12, align 8, !tbaa !58
  %.not = icmp eq ptr %13, null
  br i1 %.not, label %pkcs7_get_crls.exit.thread, label %.split7.preheader

.split7.preheader:                                ; preds = %pkcs7_get_crls.exit
  %14 = tail call ptr @OPENSSL_sk_pop(ptr noundef nonnull %13) #5
  %.not913 = icmp eq ptr %14, null
  br i1 %.not913, label %pkcs7_get_crls.exit.thread, label %.split

.split:                                           ; preds = %.split7.preheader, %.split
  %15 = phi ptr [ %16, %.split ], [ %14, %.split7.preheader ]
  tail call void @X509_CRL_free(ptr noundef nonnull %15) #5
  %16 = tail call ptr @OPENSSL_sk_pop(ptr noundef nonnull %13) #5
  %.not9 = icmp eq ptr %16, null
  br i1 %.not9, label %pkcs7_get_crls.exit.thread, label %.split, !llvm.loop !60

pkcs7_get_crls.exit.thread:                       ; preds = %.split, %.split7.preheader, %6, %pkcs7_get_crls.exit
  %.pr.i = load i64, ptr @ossl_pkcs7_set_crls.rbimpl_id, align 8, !tbaa !6
  %.not4.i = icmp eq i64 %.pr.i, 0
  br i1 %.not4.i, label %.lr.ph.i, label %rbimpl_intern_const.exit

.lr.ph.i:                                         ; preds = %pkcs7_get_crls.exit.thread, %.lr.ph.i
  %17 = tail call i64 @rb_intern2(ptr noundef nonnull @.str.81, i64 noundef 4) #5
  store i64 %17, ptr @ossl_pkcs7_set_crls.rbimpl_id, align 8, !tbaa !6
  %.not.i10 = icmp eq i64 %17, 0
  br i1 %.not.i10, label %.lr.ph.i, label %rbimpl_intern_const.exit, !llvm.loop !42

rbimpl_intern_const.exit:                         ; preds = %.lr.ph.i, %pkcs7_get_crls.exit.thread
  %.lcssa.i = phi i64 [ %.pr.i, %pkcs7_get_crls.exit.thread ], [ %17, %.lr.ph.i ]
  %18 = tail call i64 @rb_block_call(i64 noundef %1, i64 noundef %.lcssa.i, i32 noundef 0, ptr noundef null, ptr noundef nonnull @ossl_pkcs7_set_crls_i, i64 noundef %0) #5
  ret i64 %1
}